target datalayout = "e-m:e-p270:32:32-p271:32:32-p272:64:64-i64:64-i128:128-f80:128-n8:16:32:64-S128"
target triple = "x86_64-pc-linux-gnu"

%struct.LogicalDecodingContext = type { ptr, ptr, ptr, ptr, ptr, i8, %struct.OutputPluginCallbacks, %struct.OutputPluginOptions, ptr, ptr, ptr, ptr, ptr, ptr, ptr, i8, i8, i8, i8, i8, i64, i32, i8, i8 }
%struct.OutputPluginCallbacks = type { ptr, ptr, ptr, ptr, ptr, ptr, ptr, ptr, ptr, ptr, ptr, ptr, ptr, ptr, ptr, ptr, ptr, ptr, ptr, ptr, ptr }
%struct.OutputPluginOptions = type { i32, i8 }
%struct.ReorderBuffer = type { ptr, %struct.dlist_head, %struct.dlist_head, %struct.dclist_head, i32, ptr, ptr, ptr, ptr, ptr, ptr, ptr, ptr, ptr, ptr, ptr, ptr, ptr, ptr, ptr, ptr, ptr, ptr, ptr, ptr, i8, ptr, ptr, ptr, ptr, i64, ptr, i64, i64, ptr, i64, i64, i64, i64, i64, i64, i64, i64 }
%struct.dlist_head = type { %struct.dlist_node }
%struct.dlist_node = type { ptr, ptr }
%struct.dclist_head = type { %struct.dlist_head, i32 }
%struct.LogicalErrorCallbackState = type { ptr, ptr, i64 }
%struct.ErrorContextCallback = type { ptr, ptr, ptr }
%struct.ReorderBufferTXN = type { i32, i32, i32, ptr, i64, i64, i64, ptr, i64, i16, i64, %union.anon, ptr, i64, %struct.dlist_node, ptr, i32, i64, i64, %struct.dlist_head, %struct.dlist_head, i64, ptr, ptr, %struct.dlist_head, i32, i32, ptr, %struct.dlist_node, %struct.dlist_node, %struct.pairingheap_node, i64, i64, ptr }
%union.anon = type { i64 }
%struct.pairingheap_node = type { ptr, ptr, ptr }
%struct.ReorderBufferChange = type { i64, i32, ptr, i16, %union.anon.0, %struct.dlist_node }
%union.anon.0 = type { %struct.anon.1 }
%struct.anon.1 = type { %struct.RelFileLocator, i8, ptr, ptr }
%struct.RelFileLocator = type { i32, i32, i32 }

@error_context_stack = external global ptr, align 8
@.str.57 = private unnamed_addr constant [16 x i8] c"stream_truncate\00", align 1

; Function Attrs: nounwind uwtable
define internal void @stream_truncate_cb_wrapper(ptr noundef %0, ptr noundef %1, i32 noundef %2, ptr noundef %3, ptr noundef %4) #0 {
  %6 = alloca ptr, align 8
  %7 = alloca ptr, align 8
  %8 = alloca i32, align 4
  %9 = alloca ptr, align 8
  %10 = alloca ptr, align 8
  %11 = alloca ptr, align 8
  %12 = alloca %struct.LogicalErrorCallbackState, align 8
  %13 = alloca %struct.ErrorContextCallback, align 8
  %14 = alloca i32, align 4
  store ptr %0, ptr %6, align 8
  store ptr %1, ptr %7, align 8
  store i32 %2, ptr %8, align 4
  store ptr %3, ptr %9, align 8
  store ptr %4, ptr %10, align 8
  call void @llvm.lifetime.start.p0(i64 8, ptr %11) #10
  %15 = load ptr, ptr %6, align 8
  %16 = getelementptr inbounds nuw %struct.ReorderBuffer, ptr %15, i32 0, i32 24
  %17 = load ptr, ptr %16, align 8
  store ptr %17, ptr %11, align 8
  call void @llvm.lifetime.start.p0(i64 24, ptr %12) #10
  call void @llvm.lifetime.start.p0(i64 24, ptr %13) #10
  %18 = load ptr, ptr %11, align 8
  %19 = getelementptr inbounds nuw %struct.LogicalDecodingContext, ptr %18, i32 0, i32 6
  %20 = getelementptr inbounds nuw %struct.OutputPluginCallbacks, ptr %19, i32 0, i32 20
  %21 = load ptr, ptr %20, align 8
  %22 = icmp ne ptr %21, null
  br i1 %22, label %24, label %23

23:                                               ; preds = %5
  store i32 1, ptr %14, align 4
  br label %61

24:                                               ; preds = %5
  %25 = load ptr, ptr %11, align 8
  %26 = getelementptr inbounds nuw %struct.LogicalErrorCallbackState, ptr %12, i32 0, i32 0
  store ptr %25, ptr %26, align 8
  %27 = getelementptr inbounds nuw %struct.LogicalErrorCallbackState, ptr %12, i32 0, i32 1
  store ptr @.str.57, ptr %27, align 8
  %28 = load ptr, ptr %10, align 8
  %29 = getelementptr inbounds nuw %struct.ReorderBufferChange, ptr %28, i32 0, i32 0
  %30 = load i64, ptr %29, align 8
  %31 = getelementptr inbounds nuw %struct.LogicalErrorCallbackState, ptr %12, i32 0, i32 2
  store i64 %30, ptr %31, align 8
  %32 = getelementptr inbounds nuw %struct.ErrorContextCallback, ptr %13, i32 0, i32 1
  store ptr @output_plugin_error_callback, ptr %32, align 8
  %33 = getelementptr inbounds nuw %struct.ErrorContextCallback, ptr %13, i32 0, i32 2
  store ptr %12, ptr %33, align 8
  %34 = load ptr, ptr @error_context_stack, align 8
  %35 = getelementptr inbounds nuw %struct.ErrorContextCallback, ptr %13, i32 0, i32 0
  store ptr %34, ptr %35, align 8
  store ptr %13, ptr @error_context_stack, align 8
  %36 = load ptr, ptr %11, align 8
  %37 = getelementptr inbounds nuw %struct.LogicalDecodingContext, ptr %36, i32 0, i32 18
  store i8 1, ptr %37, align 1
  %38 = load ptr, ptr %7, align 8
  %39 = getelementptr inbounds nuw %struct.ReorderBufferTXN, ptr %38, i32 0, i32 1
  %40 = load i32, ptr %39, align 4
  %41 = load ptr, ptr %11, align 8
  %42 = getelementptr inbounds nuw %struct.LogicalDecodingContext, ptr %41, i32 0, i32 21
  store i32 %40, ptr %42, align 8
  %43 = load ptr, ptr %10, align 8
  %44 = getelementptr inbounds nuw %struct.ReorderBufferChange, ptr %43, i32 0, i32 0
  %45 = load i64, ptr %44, align 8
  %46 = load ptr, ptr %11, align 8
  %47 = getelementptr inbounds nuw %struct.LogicalDecodingContext, ptr %46, i32 0, i32 20
  store i64 %45, ptr %47, align 8
  %48 = load ptr, ptr %11, align 8
  %49 = getelementptr inbounds nuw %struct.LogicalDecodingContext, ptr %48, i32 0, i32 22
  store i8 0, ptr %49, align 4
  %50 = load ptr, ptr %11, align 8
  %51 = getelementptr inbounds nuw %struct.LogicalDecodingContext, ptr %50, i32 0, i32 6
  %52 = getelementptr inbounds nuw %struct.OutputPluginCallbacks, ptr %51, i32 0, i32 20
  %53 = load ptr, ptr %52, align 8
  %54 = load ptr, ptr %11, align 8
  %55 = load ptr, ptr %7, align 8
  %56 = load i32, ptr %8, align 4
  %57 = load ptr, ptr %9, align 8
  %58 = load ptr, ptr %10, align 8
  call void %53(ptr noundef %54, ptr noundef %55, i32 noundef %56, ptr noundef %57, ptr noundef %58)
  %59 = getelementptr inbounds nuw %struct.ErrorContextCallback, ptr %13, i32 0, i32 0
  %60 = load ptr, ptr %59, align 8
  store ptr %60, ptr @error_context_stack, align 8
  store i32 0, ptr %14, align 4
  br label %61

61:                                               ; preds = %24, %23
  call void @llvm.lifetime.end.p0(i64 24, ptr %13) #10
  call void @llvm.lifetime.end.p0(i64 24, ptr %12) #10
  call void @llvm.lifetime.end.p0(i64 8, ptr %11) #10
  %62 = load i32, ptr %14, align 4
  switch i32 %62, label %64 [
    i32 0, label %63
    i32 1, label %63
  ]

63:                                               ; preds = %61, %61
  ret void

64:                                               ; preds = %61
  unreachable
}