; Function Attrs: nounwind uwtable
define internal void @stream_truncate_cb_wrapper(ptr noundef readonly captures(none) %0, ptr noundef %1, i32 noundef %2, ptr noundef %3, ptr noundef %4) #0 {
  %6 = alloca %struct.LogicalErrorCallbackState, align 8
  %7 = alloca %struct.ErrorContextCallback, align 8
  %8 = getelementptr inbounds nuw i8, ptr %0, i64 224
  %9 = load ptr, ptr %8, align 8
  call void @llvm.lifetime.start.p0(i64 24, ptr nonnull %6) #10
  call void @llvm.lifetime.start.p0(i64 24, ptr nonnull %7) #10
  %10 = getelementptr inbounds nuw i8, ptr %9, i64 208
  %11 = load ptr, ptr %10, align 8
  %.not = icmp eq ptr %11, null
  br i1 %.not, label %27, label %12

12:                                               ; preds = %5
  store ptr %9, ptr %6, align 8
  %13 = getelementptr inbounds nuw i8, ptr %6, i64 8
  store ptr @.str.57, ptr %13, align 8
  %14 = load i64, ptr %4, align 8
  %15 = getelementptr inbounds nuw i8, ptr %6, i64 16
  store i64 %14, ptr %15, align 8
  %16 = getelementptr inbounds nuw i8, ptr %7, i64 8
  store ptr @output_plugin_error_callback, ptr %16, align 8
  %17 = getelementptr inbounds nuw i8, ptr %7, i64 16
  store ptr %6, ptr %17, align 8
  %18 = load ptr, ptr @error_context_stack, align 8
  store ptr %18, ptr %7, align 8
  store ptr %7, ptr @error_context_stack, align 8
  %19 = getelementptr inbounds nuw i8, ptr %9, i64 283
  store i8 1, ptr %19, align 1
  %20 = getelementptr inbounds nuw i8, ptr %1, i64 4
  %21 = load i32, ptr %20, align 4
  %22 = getelementptr inbounds nuw i8, ptr %9, i64 296
  store i32 %21, ptr %22, align 8
  %23 = load i64, ptr %4, align 8
  %24 = getelementptr inbounds nuw i8, ptr %9, i64 288
  store i64 %23, ptr %24, align 8
  %25 = getelementptr inbounds nuw i8, ptr %9, i64 300
  store i8 0, ptr %25, align 4
  call void %11(ptr noundef nonnull %9, ptr noundef %1, i32 noundef %2, ptr noundef %3, ptr noundef nonnull %4) #10
  %26 = load ptr, ptr %7, align 8
  store ptr %26, ptr @error_context_stack, align 8
  br label %27

27:                                               ; preds = %5, %12
  call void @llvm.lifetime.end.p0(i64 24, ptr nonnull %7) #10
  call void @llvm.lifetime.end.p0(i64 24, ptr nonnull %6) #10
  ret void
}